target datalayout = "e-m:e-p270:32:32-p271:32:32-p272:64:64-i64:64-i128:128-f80:128-n8:16:32:64-S128"
target triple = "x86_64-pc-linux-gnu"

%struct.rb_data_type_struct = type { ptr, %struct.anon, ptr, ptr, i64 }
%struct.anon = type { ptr, ptr, ptr, ptr, [1 x ptr] }

@ossl_evp_pkey_type = constant %struct.rb_data_type_struct { ptr @.str, %struct.anon { ptr null, ptr @ossl_evp_pkey_free, ptr null, ptr null, [1 x ptr] zeroinitializer }, ptr null, ptr null, i64 33 }, align 8
@ePKeyError = global i64 0, align 8
@rb_eRuntimeError = external global i64, align 8
@.str.4 = private unnamed_addr constant [25 x i8] c"PKEY wasn't initialized!\00", align 1
@.str.8 = private unnamed_addr constant [8 x i8] c"BIO_new\00", align 1
@.str.58 = private unnamed_addr constant [22 x i8] c"EVP_PKEY_print_params\00", align 1

; Function Attrs: nounwind sspstrong uwtable
define internal i64 @ossl_pkey_to_text(i64 noundef %0) #0 {
  %2 = alloca i64, align 8
  %3 = alloca ptr, align 8
  %4 = alloca ptr, align 8
  store i64 %0, ptr %2, align 8, !tbaa !12
  call void @llvm.lifetime.start.p0(i64 8, ptr %3) #19
  call void @llvm.lifetime.start.p0(i64 8, ptr %4) #19
  br label %5

5:                                                ; preds = %1
  %6 = load i64, ptr %2, align 8, !tbaa !12
  %7 = call ptr @rb_check_typeddata(i64 noundef %6, ptr noundef @ossl_evp_pkey_type)
  store ptr %7, ptr %3, align 8, !tbaa !10
  %8 = load ptr, ptr %3, align 8, !tbaa !10
  %9 = icmp ne ptr %8, null
  br i1 %9, label %12, label %10

10:                                               ; preds = %5
  %11 = load i64, ptr @rb_eRuntimeError, align 8, !tbaa !12
  call void (i64, ptr, ...) @rb_raise(i64 noundef %11, ptr noundef @.str.4) #20
  unreachable

12:                                               ; preds = %5
  br label %13

13:                                               ; preds = %12
  br label %14

14:                                               ; preds = %13
  %15 = call ptr @BIO_s_mem()
  %16 = call ptr @BIO_new(ptr noundef %15)
  store ptr %16, ptr %4, align 8, !tbaa !20
  %17 = icmp ne ptr %16, null
  br i1 %17, label %20, label %18

18:                                               ; preds = %14
  %19 = load i64, ptr @ePKeyError, align 8, !tbaa !12
  call void (i64, ptr, ...) @ossl_raise(i64 noundef %19, ptr noundef @.str.8) #20
  unreachable

20:                                               ; preds = %14
  %21 = load ptr, ptr %4, align 8, !tbaa !20
  %22 = load ptr, ptr %3, align 8, !tbaa !10
  %23 = call i32 @EVP_PKEY_print_private(ptr noundef %21, ptr noundef %22, i32 noundef 0, ptr noundef null)
  %24 = icmp eq i32 %23, 1
  br i1 %24, label %25, label %26

25:                                               ; preds = %20
  br label %52

26:                                               ; preds = %20
  br label %27

27:                                               ; preds = %26
  %28 = load ptr, ptr %4, align 8, !tbaa !20
  %29 = call i64 @BIO_ctrl(ptr noundef %28, i32 noundef 1, i64 noundef 0, ptr noundef null)
  call void @ossl_clear_error()
  br label %30

30:                                               ; preds = %27
  br label %31

31:                                               ; preds = %30
  %32 = load ptr, ptr %4, align 8, !tbaa !20
  %33 = load ptr, ptr %3, align 8, !tbaa !10
  %34 = call i32 @EVP_PKEY_print_public(ptr noundef %32, ptr noundef %33, i32 noundef 0, ptr noundef null)
  %35 = icmp eq i32 %34, 1
  br i1 %35, label %36, label %37

36:                                               ; preds = %31
  br label %52

37:                                               ; preds = %31
  br label %38

38:                                               ; preds = %37
  %39 = load ptr, ptr %4, align 8, !tbaa !20
  %40 = call i64 @BIO_ctrl(ptr noundef %39, i32 noundef 1, i64 noundef 0, ptr noundef null)
  call void @ossl_clear_error()
  br label %41

41:                                               ; preds = %38
  br label %42

42:                                               ; preds = %41
  %43 = load ptr, ptr %4, align 8, !tbaa !20
  %44 = load ptr, ptr %3, align 8, !tbaa !10
  %45 = call i32 @EVP_PKEY_print_params(ptr noundef %43, ptr noundef %44, i32 noundef 0, ptr noundef null)
  %46 = icmp eq i32 %45, 1
  br i1 %46, label %47, label %48

47:                                               ; preds = %42
  br label %52

48:                                               ; preds = %42
  %49 = load ptr, ptr %4, align 8, !tbaa !20
  %50 = call i32 @BIO_free(ptr noundef %49)
  %51 = load i64, ptr @ePKeyError, align 8, !tbaa !12
  call void (i64, ptr, ...) @ossl_raise(i64 noundef %51, ptr noundef @.str.58) #20
  unreachable

52:                                               ; preds = %47, %36, %25
  %53 = load ptr, ptr %4, align 8, !tbaa !20
  %54 = call i64 @ossl_membio2str(ptr noundef %53)
  call void @llvm.lifetime.end.p0(i64 8, ptr %4) #19
  call void @llvm.lifetime.end.p0(i64 8, ptr %3) #19
  ret i64 %54
}