; Function Attrs: nounwind sspstrong uwtable
define internal i64 @ossl_pkey_to_text(i64 noundef %0) #0 {
  %2 = tail call ptr @rb_check_typeddata(i64 noundef %0, ptr noundef nonnull @ossl_evp_pkey_type) #8
  %.not = icmp eq ptr %2, null
  br i1 %.not, label %3, label %5

3:                                                ; preds = %1
  %4 = load i64, ptr @rb_eRuntimeError, align 8, !tbaa !10
  tail call void (i64, ptr, ...) @rb_raise(i64 noundef %4, ptr noundef nonnull @.str.4) #9
  unreachable

5:                                                ; preds = %1
  %6 = tail call ptr @BIO_s_mem() #8
  %7 = tail call ptr @BIO_new(ptr noundef %6) #8
  %.not12 = icmp eq ptr %7, null
  br i1 %.not12, label %8, label %10

8:                                                ; preds = %5
  %9 = load i64, ptr @ePKeyError, align 8, !tbaa !10
  tail call void (i64, ptr, ...) @ossl_raise(i64 noundef %9, ptr noundef nonnull @.str.8) #9
  unreachable

10:                                               ; preds = %5
  %11 = tail call i32 @EVP_PKEY_print_private(ptr noundef nonnull %7, ptr noundef nonnull %2, i32 noundef 0, ptr noundef null) #8
  %12 = icmp eq i32 %11, 1
  br i1 %12, label %24, label %13

13:                                               ; preds = %10
  %14 = tail call i64 @BIO_ctrl(ptr noundef nonnull %7, i32 noundef 1, i64 noundef 0, ptr noundef null) #8
  tail call void @ossl_clear_error() #8
  %15 = tail call i32 @EVP_PKEY_print_public(ptr noundef nonnull %7, ptr noundef nonnull %2, i32 noundef 0, ptr noundef null) #8
  %16 = icmp eq i32 %15, 1
  br i1 %16, label %24, label %17

17:                                               ; preds = %13
  %18 = tail call i64 @BIO_ctrl(ptr noundef nonnull %7, i32 noundef 1, i64 noundef 0, ptr noundef null) #8
  tail call void @ossl_clear_error() #8
  %19 = tail call i32 @EVP_PKEY_print_params(ptr noundef nonnull %7, ptr noundef nonnull %2, i32 noundef 0, ptr noundef null) #8
  %20 = icmp eq i32 %19, 1
  br i1 %20, label %24, label %21

21:                                               ; preds = %17
  %22 = tail call i32 @BIO_free(ptr noundef nonnull %7) #8
  %23 = load i64, ptr @ePKeyError, align 8, !tbaa !10
  tail call void (i64, ptr, ...) @ossl_raise(i64 noundef %23, ptr noundef nonnull @.str.58) #9
  unreachable

24:                                               ; preds = %17, %13, %10
  %25 = tail call i64 @ossl_membio2str(ptr noundef nonnull %7) #8
  ret i64 %25
}